target datalayout = "e-m:e-p270:32:32-p271:32:32-p272:64:64-i64:64-i128:128-f80:128-n8:16:32:64-S128"
target triple = "x86_64-pc-linux-gnu"

@hf_tacplus_port = internal global i32 0, align 4
@hf_tacplus_remote_address = internal global i32 0, align 4
@hf_tacplus_privilege_level = internal global i32 0, align 4
@hf_tacplus_authentication_type = internal global i32 0, align 4
@hf_tacplus_service = internal global i32 0, align 4
@hf_tacplus_user_len = internal global i32 0, align 4
@hf_tacplus_user = internal global i32 0, align 4
@hf_tacplus_port_len = internal global i32 0, align 4
@hf_tacplus_remote_address_len = internal global i32 0, align 4

; Function Attrs: null_pointer_is_valid sspstrong uwtable
define internal i32 @proto_tree_add_tacplus_common_fields(ptr noundef %0, ptr noundef %1, i32 noundef %2, i32 noundef %3) #0 {
  %5 = alloca ptr, align 8
  %6 = alloca ptr, align 8
  %7 = alloca i32, align 4
  %8 = alloca i32, align 4
  %9 = alloca i32, align 4
  store ptr %0, ptr %5, align 8
  store ptr %1, ptr %6, align 8
  store i32 %2, ptr %7, align 4
  store i32 %3, ptr %8, align 4
  call void @llvm.lifetime.start.p0(i64 4, ptr %9) #12
  %10 = load ptr, ptr %6, align 8
  %11 = load i32, ptr @hf_tacplus_privilege_level, align 4
  %12 = load ptr, ptr %5, align 8
  %13 = load i32, ptr %7, align 4
  %14 = call ptr @proto_tree_add_item(ptr noundef %10, i32 noundef %11, ptr noundef %12, i32 noundef %13, i32 noundef 1, i32 noundef 0)
  %15 = load i32, ptr %7, align 4
  %16 = add i32 %15, 1
  store i32 %16, ptr %7, align 4
  %17 = load ptr, ptr %6, align 8
  %18 = load i32, ptr @hf_tacplus_authentication_type, align 4
  %19 = load ptr, ptr %5, align 8
  %20 = load i32, ptr %7, align 4
  %21 = call ptr @proto_tree_add_item(ptr noundef %17, i32 noundef %18, ptr noundef %19, i32 noundef %20, i32 noundef 1, i32 noundef 0)
  %22 = load i32, ptr %7, align 4
  %23 = add i32 %22, 1
  store i32 %23, ptr %7, align 4
  %24 = load ptr, ptr %6, align 8
  %25 = load i32, ptr @hf_tacplus_service, align 4
  %26 = load ptr, ptr %5, align 8
  %27 = load i32, ptr %7, align 4
  %28 = call ptr @proto_tree_add_item(ptr noundef %24, i32 noundef %25, ptr noundef %26, i32 noundef %27, i32 noundef 1, i32 noundef 0)
  %29 = load i32, ptr %7, align 4
  %30 = add i32 %29, 1
  store i32 %30, ptr %7, align 4
  %31 = load ptr, ptr %5, align 8
  %32 = load i32, ptr %7, align 4
  %33 = call zeroext i8 @tvb_get_uint8(ptr noundef %31, i32 noundef %32)
  %34 = zext i8 %33 to i32
  store i32 %34, ptr %9, align 4
  %35 = load ptr, ptr %6, align 8
  %36 = load i32, ptr @hf_tacplus_user_len, align 4
  %37 = load ptr, ptr %5, align 8
  %38 = load i32, ptr %7, align 4
  %39 = load i32, ptr %9, align 4
  %40 = call ptr @proto_tree_add_uint(ptr noundef %35, i32 noundef %36, ptr noundef %37, i32 noundef %38, i32 noundef 1, i32 noundef %39)
  %41 = load i32, ptr %9, align 4
  %42 = icmp ne i32 %41, 0
  br i1 %42, label %43, label %53

43:                                               ; preds = %4
  %44 = load ptr, ptr %6, align 8
  %45 = load i32, ptr @hf_tacplus_user, align 4
  %46 = load ptr, ptr %5, align 8
  %47 = load i32, ptr %8, align 4
  %48 = load i32, ptr %9, align 4
  %49 = call ptr @proto_tree_add_item(ptr noundef %44, i32 noundef %45, ptr noundef %46, i32 noundef %47, i32 noundef %48, i32 noundef 0)
  %50 = load i32, ptr %9, align 4
  %51 = load i32, ptr %8, align 4
  %52 = add i32 %51, %50
  store i32 %52, ptr %8, align 4
  br label %53

53:                                               ; preds = %43, %4
  %54 = load i32, ptr %7, align 4
  %55 = add i32 %54, 1
  store i32 %55, ptr %7, align 4
  %56 = load ptr, ptr %5, align 8
  %57 = load i32, ptr %7, align 4
  %58 = call zeroext i8 @tvb_get_uint8(ptr noundef %56, i32 noundef %57)
  %59 = zext i8 %58 to i32
  store i32 %59, ptr %9, align 4
  %60 = load ptr, ptr %6, align 8
  %61 = load i32, ptr @hf_tacplus_port_len, align 4
  %62 = load ptr, ptr %5, align 8
  %63 = load i32, ptr %7, align 4
  %64 = load i32, ptr %9, align 4
  %65 = call ptr @proto_tree_add_uint(ptr noundef %60, i32 noundef %61, ptr noundef %62, i32 noundef %63, i32 noundef 1, i32 noundef %64)
  %66 = load i32, ptr %9, align 4
  %67 = icmp ne i32 %66, 0
  br i1 %67, label %68, label %78

68:                                               ; preds = %53
  %69 = load ptr, ptr %6, align 8
  %70 = load i32, ptr @hf_tacplus_port, align 4
  %71 = load ptr, ptr %5, align 8
  %72 = load i32, ptr %8, align 4
  %73 = load i32, ptr %9, align 4
  %74 = call ptr @proto_tree_add_item(ptr noundef %69, i32 noundef %70, ptr noundef %71, i32 noundef %72, i32 noundef %73, i32 noundef 0)
  %75 = load i32, ptr %9, align 4
  %76 = load i32, ptr %8, align 4
  %77 = add i32 %76, %75
  store i32 %77, ptr %8, align 4
  br label %78

78:                                               ; preds = %68, %53
  %79 = load i32, ptr %7, align 4
  %80 = add i32 %79, 1
  store i32 %80, ptr %7, align 4
  %81 = load ptr, ptr %5, align 8
  %82 = load i32, ptr %7, align 4
  %83 = call zeroext i8 @tvb_get_uint8(ptr noundef %81, i32 noundef %82)
  %84 = zext i8 %83 to i32
  store i32 %84, ptr %9, align 4
  %85 = load ptr, ptr %6, align 8
  %86 = load i32, ptr @hf_tacplus_remote_address_len, align 4
  %87 = load ptr, ptr %5, align 8
  %88 = load i32, ptr %7, align 4
  %89 = load i32, ptr %9, align 4
  %90 = call ptr @proto_tree_add_uint(ptr noundef %85, i32 noundef %86, ptr noundef %87, i32 noundef %88, i32 noundef 1, i32 noundef %89)
  %91 = load i32, ptr %9, align 4
  %92 = icmp ne i32 %91, 0
  br i1 %92, label %93, label %103

93:                                               ; preds = %78
  %94 = load ptr, ptr %6, align 8
  %95 = load i32, ptr @hf_tacplus_remote_address, align 4
  %96 = load ptr, ptr %5, align 8
  %97 = load i32, ptr %8, align 4
  %98 = load i32, ptr %9, align 4
  %99 = call ptr @proto_tree_add_item(ptr noundef %94, i32 noundef %95, ptr noundef %96, i32 noundef %97, i32 noundef %98, i32 noundef 0)
  %100 = load i32, ptr %9, align 4
  %101 = load i32, ptr %8, align 4
  %102 = add i32 %101, %100
  store i32 %102, ptr %8, align 4
  br label %103

103:                                              ; preds = %93, %78
  %104 = load i32, ptr %8, align 4
  call void @llvm.lifetime.end.p0(i64 4, ptr %9) #12
  ret i32 %104
}