; Function Attrs: null_pointer_is_valid sspstrong uwtable
define internal fastcc range(i32 8, 1030) i32 @proto_tree_add_tacplus_common_fields(ptr noundef %0, ptr noundef %1, i32 noundef range(i32 1, 3) %2, i32 noundef range(i32 8, 265) %3) unnamed_addr #0 {
  %5 = load i32, ptr @hf_tacplus_privilege_level, align 4
  %6 = tail call ptr @proto_tree_add_item(ptr noundef %1, i32 noundef %5, ptr noundef %0, i32 noundef %2, i32 noundef 1, i32 noundef 0)
  %7 = add nuw nsw i32 %2, 1
  %8 = load i32, ptr @hf_tacplus_authentication_type, align 4
  %9 = tail call ptr @proto_tree_add_item(ptr noundef %1, i32 noundef %8, ptr noundef %0, i32 noundef %7, i32 noundef 1, i32 noundef 0)
  %10 = add nuw nsw i32 %2, 2
  %11 = load i32, ptr @hf_tacplus_service, align 4
  %12 = tail call ptr @proto_tree_add_item(ptr noundef %1, i32 noundef %11, ptr noundef %0, i32 noundef %10, i32 noundef 1, i32 noundef 0)
  %13 = add nuw nsw i32 %2, 3
  %14 = tail call zeroext i8 @tvb_get_uint8(ptr noundef %0, i32 noundef %13)
  %15 = zext i8 %14 to i32
  %16 = load i32, ptr @hf_tacplus_user_len, align 4
  %17 = tail call ptr @proto_tree_add_uint(ptr noundef %1, i32 noundef %16, ptr noundef %0, i32 noundef %13, i32 noundef 1, i32 noundef %15)
  %.not = icmp eq i8 %14, 0
  br i1 %.not, label %22, label %18

18:                                               ; preds = %4
  %19 = load i32, ptr @hf_tacplus_user, align 4
  %20 = tail call ptr @proto_tree_add_item(ptr noundef %1, i32 noundef %19, ptr noundef %0, i32 noundef %3, i32 noundef %15, i32 noundef 0)
  %21 = add nuw nsw i32 %3, %15
  br label %22

22:                                               ; preds = %18, %4
  %.0 = phi i32 [ %21, %18 ], [ %3, %4 ]
  %23 = or disjoint i32 %2, 4
  %24 = tail call zeroext i8 @tvb_get_uint8(ptr noundef %0, i32 noundef %23)
  %25 = zext i8 %24 to i32
  %26 = load i32, ptr @hf_tacplus_port_len, align 4
  %27 = tail call ptr @proto_tree_add_uint(ptr noundef %1, i32 noundef %26, ptr noundef %0, i32 noundef %23, i32 noundef 1, i32 noundef %25)
  %.not56 = icmp eq i8 %24, 0
  br i1 %.not56, label %32, label %28

28:                                               ; preds = %22
  %29 = load i32, ptr @hf_tacplus_port, align 4
  %30 = tail call ptr @proto_tree_add_item(ptr noundef %1, i32 noundef %29, ptr noundef %0, i32 noundef %.0, i32 noundef %25, i32 noundef 0)
  %31 = add nuw nsw i32 %.0, %25
  br label %32

32:                                               ; preds = %28, %22
  %.1 = phi i32 [ %31, %28 ], [ %.0, %22 ]
  %33 = add nuw nsw i32 %2, 5
  %34 = tail call zeroext i8 @tvb_get_uint8(ptr noundef %0, i32 noundef %33)
  %35 = zext i8 %34 to i32
  %36 = load i32, ptr @hf_tacplus_remote_address_len, align 4
  %37 = tail call ptr @proto_tree_add_uint(ptr noundef %1, i32 noundef %36, ptr noundef %0, i32 noundef %33, i32 noundef 1, i32 noundef %35)
  %.not57 = icmp eq i8 %34, 0
  br i1 %.not57, label %42, label %38

38:                                               ; preds = %32
  %39 = load i32, ptr @hf_tacplus_remote_address, align 4
  %40 = tail call ptr @proto_tree_add_item(ptr noundef %1, i32 noundef %39, ptr noundef %0, i32 noundef %.1, i32 noundef %35, i32 noundef 0)
  %41 = add nuw nsw i32 %.1, %35
  br label %42

42:                                               ; preds = %38, %32
  %.2 = phi i32 [ %41, %38 ], [ %.1, %32 ]
  ret i32 %.2
}